; Function Attrs: mustprogress nofree norecurse nounwind willreturn memory(read, inaccessiblemem: none) uwtable
define hidden noundef zeroext i1 @_ZN4lean28is_pseudo_do_join_point_nameERKNS_4nameE(ptr noundef nonnull readonly align 8 captures(none) dereferenceable(8) %0) local_unnamed_addr #9 {
  %2 = load ptr, ptr %0, align 8, !tbaa !3
  %3 = ptrtoint ptr %2 to i64
  %4 = and i64 %3, 1
  %.not.i.i.i.i.i.i = icmp eq i64 %4, 0
  br i1 %.not.i.i.i.i.i.i, label %8, label %5

5:                                                ; preds = %1
  %6 = lshr i64 %3, 1
  %7 = trunc i64 %6 to i32
  br label %_ZNK4lean4name12is_anonymousEv.exit.i

8:                                                ; preds = %1
  %9 = getelementptr i8, ptr %2, i64 4
  %.val.i.i.i.i.i.i = load i32, ptr %9, align 4
  %10 = lshr i32 %.val.i.i.i.i.i.i, 24
  br label %_ZNK4lean4name12is_anonymousEv.exit.i

_ZNK4lean4name12is_anonymousEv.exit.i:            ; preds = %8, %5
  %.0.i.i.i.i.i.i = phi i32 [ %7, %5 ], [ %10, %8 ]
  %11 = icmp eq i32 %.0.i.i.i.i.i.i, 0
  br i1 %11, label %_ZNK4lean4name9is_atomicEv.exit.thread, label %12

12:                                               ; preds = %_ZNK4lean4name12is_anonymousEv.exit.i
  %13 = getelementptr inbounds nuw i8, ptr %2, i64 8
  %14 = load ptr, ptr %13, align 8, !tbaa !16
  %15 = ptrtoint ptr %14 to i64
  %16 = and i64 %15, 1
  %.not.i.i.i.i = icmp eq i64 %16, 0
  br i1 %.not.i.i.i.i, label %20, label %17

17:                                               ; preds = %12
  %18 = lshr i64 %15, 1
  %19 = trunc i64 %18 to i32
  br label %_ZNK4lean4name9is_atomicEv.exit

20:                                               ; preds = %12
  %21 = getelementptr i8, ptr %14, i64 4
  %.val.i.i.i.i = load i32, ptr %21, align 4
  %22 = lshr i32 %.val.i.i.i.i, 24
  br label %_ZNK4lean4name9is_atomicEv.exit

_ZNK4lean4name9is_atomicEv.exit:                  ; preds = %17, %20
  %.0.i.i.i.i = phi i32 [ %19, %17 ], [ %22, %20 ]
  %23 = icmp eq i32 %.0.i.i.i.i, 0
  br i1 %23, label %_ZNK4lean4name9is_atomicEv.exit.thread, label %24

24:                                               ; preds = %_ZNK4lean4name9is_atomicEv.exit
  br i1 %.not.i.i.i.i.i.i, label %28, label %25

25:                                               ; preds = %24
  %26 = lshr i64 %3, 1
  %27 = trunc i64 %26 to i32
  br label %_ZNK4lean4name9is_stringEv.exit

28:                                               ; preds = %24
  %29 = getelementptr i8, ptr %2, i64 4
  %.val.i.i.i.i.i = load i32, ptr %29, align 4
  %30 = lshr i32 %.val.i.i.i.i.i, 24
  br label %_ZNK4lean4name9is_stringEv.exit

_ZNK4lean4name9is_stringEv.exit:                  ; preds = %25, %28
  %.0.i.i.i.i.i = phi i32 [ %27, %25 ], [ %30, %28 ]
  %31 = icmp eq i32 %.0.i.i.i.i.i, 1
  br i1 %31, label %32, label %_ZNK4lean4name9is_atomicEv.exit.thread

32:                                               ; preds = %_ZNK4lean4name9is_stringEv.exit
  %33 = getelementptr inbounds nuw i8, ptr %2, i64 16
  %34 = load ptr, ptr %33, align 8, !tbaa !3
  %35 = getelementptr inbounds nuw i8, ptr %34, i64 32
  %36 = tail call i32 @strncmp(ptr noundef nonnull dereferenceable(1) %35, ptr noundef nonnull dereferenceable(8) @.str.2, i64 noundef 6) #28
  %37 = icmp eq i32 %36, 0
  br label %_ZNK4lean4name9is_atomicEv.exit.thread

_ZNK4lean4name9is_atomicEv.exit.thread:           ; preds = %_ZNK4lean4name12is_anonymousEv.exit.i, %32, %_ZNK4lean4name9is_stringEv.exit, %_ZNK4lean4name9is_atomicEv.exit
  %38 = phi i1 [ false, %_ZNK4lean4name9is_stringEv.exit ], [ false, %_ZNK4lean4name9is_atomicEv.exit ], [ %37, %32 ], [ false, %_ZNK4lean4name12is_anonymousEv.exit.i ]
  ret i1 %38
}